target datalayout = "e-m:e-p270:32:32-p271:32:32-p272:64:64-i64:64-i128:128-f80:128-n8:16:32:64-S128"
target triple = "x86_64-pc-linux-gnu"

%"class.o3dgc::Arithmetic_Codec" = type <{ ptr, ptr, ptr, i32, i32, i32, i32, i32, [4 x i8] }>
%"class.o3dgc::Adaptive_Bit_Model" = type { i32, i32, i32, i32, i32 }

; Function Attrs: mustprogress nounwind uwtable
define hidden void @_ZN5o3dgc18Adaptive_Bit_Model6updateEv(ptr noundef nonnull align 4 dereferenceable(20) %0) #3 align 2 {
  %2 = alloca ptr, align 8
  %3 = alloca i32, align 4
  store ptr %0, ptr %2, align 8
  %4 = load ptr, ptr %2, align 8
  %5 = getelementptr inbounds nuw %"class.o3dgc::Adaptive_Bit_Model", ptr %4, i32 0, i32 0
  %6 = load i32, ptr %5, align 4
  %7 = getelementptr inbounds nuw %"class.o3dgc::Adaptive_Bit_Model", ptr %4, i32 0, i32 4
  %8 = load i32, ptr %7, align 4
  %9 = add i32 %8, %6
  store i32 %9, ptr %7, align 4
  %10 = icmp ugt i32 %9, 8192
  br i1 %10, label %11, label %32

11:                                               ; preds = %1
  %12 = getelementptr inbounds nuw %"class.o3dgc::Adaptive_Bit_Model", ptr %4, i32 0, i32 4
  %13 = load i32, ptr %12, align 4
  %14 = add i32 %13, 1
  %15 = lshr i32 %14, 1
  %16 = getelementptr inbounds nuw %"class.o3dgc::Adaptive_Bit_Model", ptr %4, i32 0, i32 4
  store i32 %15, ptr %16, align 4
  %17 = getelementptr inbounds nuw %"class.o3dgc::Adaptive_Bit_Model", ptr %4, i32 0, i32 3
  %18 = load i32, ptr %17, align 4
  %19 = add i32 %18, 1
  %20 = lshr i32 %19, 1
  %21 = getelementptr inbounds nuw %"class.o3dgc::Adaptive_Bit_Model", ptr %4, i32 0, i32 3
  store i32 %20, ptr %21, align 4
  %22 = getelementptr inbounds nuw %"class.o3dgc::Adaptive_Bit_Model", ptr %4, i32 0, i32 3
  %23 = load i32, ptr %22, align 4
  %24 = getelementptr inbounds nuw %"class.o3dgc::Adaptive_Bit_Model", ptr %4, i32 0, i32 4
  %25 = load i32, ptr %24, align 4
  %26 = icmp eq i32 %23, %25
  br i1 %26, label %27, label %31

27:                                               ; preds = %11
  %28 = getelementptr inbounds nuw %"class.o3dgc::Adaptive_Bit_Model", ptr %4, i32 0, i32 4
  %29 = load i32, ptr %28, align 4
  %30 = add i32 %29, 1
  store i32 %30, ptr %28, align 4
  br label %31

31:                                               ; preds = %27, %11
  br label %32

32:                                               ; preds = %31, %1
  call void @llvm.lifetime.start.p0(i64 4, ptr %3) #12
  %33 = getelementptr inbounds nuw %"class.o3dgc::Adaptive_Bit_Model", ptr %4, i32 0, i32 4
  %34 = load i32, ptr %33, align 4
  %35 = udiv i32 -2147483648, %34
  store i32 %35, ptr %3, align 4
  %36 = getelementptr inbounds nuw %"class.o3dgc::Adaptive_Bit_Model", ptr %4, i32 0, i32 3
  %37 = load i32, ptr %36, align 4
  %38 = load i32, ptr %3, align 4
  %39 = mul i32 %37, %38
  %40 = lshr i32 %39, 18
  %41 = getelementptr inbounds nuw %"class.o3dgc::Adaptive_Bit_Model", ptr %4, i32 0, i32 2
  store i32 %40, ptr %41, align 4
  %42 = getelementptr inbounds nuw %"class.o3dgc::Adaptive_Bit_Model", ptr %4, i32 0, i32 0
  %43 = load i32, ptr %42, align 4
  %44 = mul i32 5, %43
  %45 = lshr i32 %44, 2
  %46 = getelementptr inbounds nuw %"class.o3dgc::Adaptive_Bit_Model", ptr %4, i32 0, i32 0
  store i32 %45, ptr %46, align 4
  %47 = getelementptr inbounds nuw %"class.o3dgc::Adaptive_Bit_Model", ptr %4, i32 0, i32 0
  %48 = load i32, ptr %47, align 4
  %49 = icmp ugt i32 %48, 64
  br i1 %49, label %50, label %52

50:                                               ; preds = %32
  %51 = getelementptr inbounds nuw %"class.o3dgc::Adaptive_Bit_Model", ptr %4, i32 0, i32 0
  store i32 64, ptr %51, align 4
  br label %52

52:                                               ; preds = %50, %32
  %53 = getelementptr inbounds nuw %"class.o3dgc::Adaptive_Bit_Model", ptr %4, i32 0, i32 0
  %54 = load i32, ptr %53, align 4
  %55 = getelementptr inbounds nuw %"class.o3dgc::Adaptive_Bit_Model", ptr %4, i32 0, i32 1
  store i32 %54, ptr %55, align 4
  call void @llvm.lifetime.end.p0(i64 4, ptr %3) #12
  ret void
}

; Function Attrs: inlinehint mustprogress nounwind uwtable
define linkonce_odr hidden void @_ZN5o3dgc16Arithmetic_Codec19renorm_enc_intervalEv(ptr noundef nonnull align 8 dereferenceable(44) %0) #2 comdat align 2 {
  %2 = alloca ptr, align 8
  store ptr %0, ptr %2, align 8
  %3 = load ptr, ptr %2, align 8
  br label %4

4:                                                ; preds = %15, %1
  %5 = getelementptr inbounds nuw %"class.o3dgc::Arithmetic_Codec", ptr %3, i32 0, i32 3
  %6 = load i32, ptr %5, align 8
  %7 = lshr i32 %6, 24
  %8 = trunc i32 %7 to i8
  %9 = getelementptr inbounds nuw %"class.o3dgc::Arithmetic_Codec", ptr %3, i32 0, i32 2
  %10 = load ptr, ptr %9, align 8
  %11 = getelementptr inbounds nuw i8, ptr %10, i32 1
  store ptr %11, ptr %9, align 8
  store i8 %8, ptr %10, align 1
  %12 = getelementptr inbounds nuw %"class.o3dgc::Arithmetic_Codec", ptr %3, i32 0, i32 3
  %13 = load i32, ptr %12, align 8
  %14 = shl i32 %13, 8
  store i32 %14, ptr %12, align 8
  br label %15

15:                                               ; preds = %4
  %16 = getelementptr inbounds nuw %"class.o3dgc::Arithmetic_Codec", ptr %3, i32 0, i32 5
  %17 = load i32, ptr %16, align 8
  %18 = shl i32 %17, 8
  store i32 %18, ptr %16, align 8
  %19 = icmp ult i32 %18, 16777216
  br i1 %19, label %4, label %20, !llvm.loop !5

20:                                               ; preds = %15
  ret void
}

; Function Attrs: inlinehint mustprogress nounwind uwtable
define linkonce_odr hidden void @_ZN5o3dgc16Arithmetic_Codec15propagate_carryEv(ptr noundef nonnull align 8 dereferenceable(44) %0) #2 comdat align 2 {
  %2 = alloca ptr, align 8
  %3 = alloca ptr, align 8
  store ptr %0, ptr %2, align 8
  %4 = load ptr, ptr %2, align 8
  call void @llvm.lifetime.start.p0(i64 8, ptr %3) #12
  %5 = getelementptr inbounds nuw %"class.o3dgc::Arithmetic_Codec", ptr %4, i32 0, i32 2
  %6 = load ptr, ptr %5, align 8
  %7 = getelementptr inbounds i8, ptr %6, i64 -1
  store ptr %7, ptr %3, align 8
  br label %8

8:                                                ; preds = %15, %1
  %9 = load ptr, ptr %3, align 8
  %10 = load i8, ptr %9, align 1
  %11 = zext i8 %10 to i32
  %12 = icmp eq i32 %11, 255
  br i1 %12, label %13, label %18

13:                                               ; preds = %8
  %14 = load ptr, ptr %3, align 8
  store i8 0, ptr %14, align 1
  br label %15

15:                                               ; preds = %13
  %16 = load ptr, ptr %3, align 8
  %17 = getelementptr inbounds i8, ptr %16, i32 -1
  store ptr %17, ptr %3, align 8
  br label %8, !llvm.loop !3

18:                                               ; preds = %8
  %19 = load ptr, ptr %3, align 8
  %20 = load i8, ptr %19, align 1
  %21 = add i8 %20, 1
  store i8 %21, ptr %19, align 1
  call void @llvm.lifetime.end.p0(i64 8, ptr %3) #12
  ret void
}

; Function Attrs: mustprogress uwtable
define hidden void @_ZN5o3dgc16Arithmetic_Codec6encodeEjRNS_18Adaptive_Bit_ModelE(ptr noundef nonnull align 8 dereferenceable(44) %0, i32 noundef %1, ptr noundef nonnull align 4 dereferenceable(20) %2) #0 align 2 {
  %4 = alloca ptr, align 8
  %5 = alloca i32, align 4
  %6 = alloca ptr, align 8
  %7 = alloca i32, align 4
  %8 = alloca i32, align 4
  store ptr %0, ptr %4, align 8
  store i32 %1, ptr %5, align 4
  store ptr %2, ptr %6, align 8
  %9 = load ptr, ptr %4, align 8
  call void @llvm.lifetime.start.p0(i64 4, ptr %7) #12
  %10 = load ptr, ptr %6, align 8
  %11 = getelementptr inbounds nuw %"class.o3dgc::Adaptive_Bit_Model", ptr %10, i32 0, i32 2
  %12 = load i32, ptr %11, align 4
  %13 = getelementptr inbounds nuw %"class.o3dgc::Arithmetic_Codec", ptr %9, i32 0, i32 5
  %14 = load i32, ptr %13, align 8
  %15 = lshr i32 %14, 13
  %16 = mul i32 %12, %15
  store i32 %16, ptr %7, align 4
  %17 = load i32, ptr %5, align 4
  %18 = icmp eq i32 %17, 0
  br i1 %18, label %19, label %26

19:                                               ; preds = %3
  %20 = load i32, ptr %7, align 4
  %21 = getelementptr inbounds nuw %"class.o3dgc::Arithmetic_Codec", ptr %9, i32 0, i32 5
  store i32 %20, ptr %21, align 8
  %22 = load ptr, ptr %6, align 8
  %23 = getelementptr inbounds nuw %"class.o3dgc::Adaptive_Bit_Model", ptr %22, i32 0, i32 3
  %24 = load i32, ptr %23, align 4
  %25 = add i32 %24, 1
  store i32 %25, ptr %23, align 4
  br label %43

26:                                               ; preds = %3
  call void @llvm.lifetime.start.p0(i64 4, ptr %8) #12
  %27 = getelementptr inbounds nuw %"class.o3dgc::Arithmetic_Codec", ptr %9, i32 0, i32 3
  %28 = load i32, ptr %27, align 8
  store i32 %28, ptr %8, align 4
  %29 = load i32, ptr %7, align 4
  %30 = getelementptr inbounds nuw %"class.o3dgc::Arithmetic_Codec", ptr %9, i32 0, i32 3
  %31 = load i32, ptr %30, align 8
  %32 = add i32 %31, %29
  store i32 %32, ptr %30, align 8
  %33 = load i32, ptr %7, align 4
  %34 = getelementptr inbounds nuw %"class.o3dgc::Arithmetic_Codec", ptr %9, i32 0, i32 5
  %35 = load i32, ptr %34, align 8
  %36 = sub i32 %35, %33
  store i32 %36, ptr %34, align 8
  %37 = load i32, ptr %8, align 4
  %38 = getelementptr inbounds nuw %"class.o3dgc::Arithmetic_Codec", ptr %9, i32 0, i32 3
  %39 = load i32, ptr %38, align 8
  %40 = icmp ugt i32 %37, %39
  br i1 %40, label %41, label %42

41:                                               ; preds = %26
  call void @_ZN5o3dgc16Arithmetic_Codec15propagate_carryEv(ptr noundef nonnull align 8 dereferenceable(44) %9)
  br label %42

42:                                               ; preds = %41, %26
  call void @llvm.lifetime.end.p0(i64 4, ptr %8) #12
  br label %43

43:                                               ; preds = %42, %19
  %44 = getelementptr inbounds nuw %"class.o3dgc::Arithmetic_Codec", ptr %9, i32 0, i32 5
  %45 = load i32, ptr %44, align 8
  %46 = icmp ult i32 %45, 16777216
  br i1 %46, label %47, label %48

47:                                               ; preds = %43
  call void @_ZN5o3dgc16Arithmetic_Codec19renorm_enc_intervalEv(ptr noundef nonnull align 8 dereferenceable(44) %9)
  br label %48

48:                                               ; preds = %47, %43
  %49 = load ptr, ptr %6, align 8
  %50 = getelementptr inbounds nuw %"class.o3dgc::Adaptive_Bit_Model", ptr %49, i32 0, i32 1
  %51 = load i32, ptr %50, align 4
  %52 = add i32 %51, -1
  store i32 %52, ptr %50, align 4
  %53 = icmp eq i32 %52, 0
  br i1 %53, label %54, label %56

54:                                               ; preds = %48
  %55 = load ptr, ptr %6, align 8
  call void @_ZN5o3dgc18Adaptive_Bit_Model6updateEv(ptr noundef nonnull align 4 dereferenceable(20) %55)
  br label %56

56:                                               ; preds = %54, %48
  call void @llvm.lifetime.end.p0(i64 4, ptr %7) #12
  ret void
}