; Function Attrs: mustprogress nofree norecurse nosync nounwind memory(readwrite, inaccessiblemem: none) uwtable
define hidden void @_ZN5o3dgc16Arithmetic_Codec6encodeEjRNS_18Adaptive_Bit_ModelE(ptr noundef nonnull align 8 captures(none) dereferenceable(44) %0, i32 noundef %1, ptr noundef nonnull align 4 captures(none) dereferenceable(20) %2) local_unnamed_addr #0 align 2 {
  %4 = getelementptr inbounds nuw i8, ptr %2, i64 8
  %5 = load i32, ptr %4, align 4
  %6 = getelementptr inbounds nuw i8, ptr %0, i64 32
  %7 = load i32, ptr %6, align 8
  %8 = lshr i32 %7, 13
  %9 = mul i32 %8, %5
  %10 = icmp eq i32 %1, 0
  br i1 %10, label %11, label %15

11:                                               ; preds = %3
  store i32 %9, ptr %6, align 8
  %12 = getelementptr inbounds nuw i8, ptr %2, i64 12
  %13 = load i32, ptr %12, align 4
  %14 = add i32 %13, 1
  store i32 %14, ptr %12, align 4
  br label %thread-pre-split

15:                                               ; preds = %3
  %16 = getelementptr inbounds nuw i8, ptr %0, i64 24
  %17 = load i32, ptr %16, align 8
  %18 = add i32 %17, %9
  store i32 %18, ptr %16, align 8
  %19 = sub i32 %7, %9
  store i32 %19, ptr %6, align 8
  %20 = icmp ugt i32 %17, %18
  br i1 %20, label %21, label %29

21:                                               ; preds = %15
  %22 = getelementptr inbounds nuw i8, ptr %0, i64 16
  %23 = load ptr, ptr %22, align 8
  %.05.i = getelementptr inbounds i8, ptr %23, i64 -1
  %24 = load i8, ptr %.05.i, align 1
  %25 = icmp eq i8 %24, -1
  br i1 %25, label %.lr.ph.i, label %_ZN5o3dgc16Arithmetic_Codec15propagate_carryEv.exit

.lr.ph.i:                                         ; preds = %21, %.lr.ph.i
  %.06.i = phi ptr [ %.0.i, %.lr.ph.i ], [ %.05.i, %21 ]
  store i8 0, ptr %.06.i, align 1
  %.0.i = getelementptr inbounds i8, ptr %.06.i, i64 -1
  %26 = load i8, ptr %.0.i, align 1
  %27 = icmp eq i8 %26, -1
  br i1 %27, label %.lr.ph.i, label %_ZN5o3dgc16Arithmetic_Codec15propagate_carryEv.exit, !llvm.loop !3

_ZN5o3dgc16Arithmetic_Codec15propagate_carryEv.exit: ; preds = %.lr.ph.i, %21
  %.0.lcssa.i = phi ptr [ %.05.i, %21 ], [ %.0.i, %.lr.ph.i ]
  %.lcssa.i = phi i8 [ %24, %21 ], [ %26, %.lr.ph.i ]
  %28 = add nuw i8 %.lcssa.i, 1
  store i8 %28, ptr %.0.lcssa.i, align 1
  br label %thread-pre-split

thread-pre-split:                                 ; preds = %11, %_ZN5o3dgc16Arithmetic_Codec15propagate_carryEv.exit
  %.pr = load i32, ptr %6, align 8
  br label %29

29:                                               ; preds = %thread-pre-split, %15
  %30 = phi i32 [ %.pr, %thread-pre-split ], [ %19, %15 ]
  %31 = icmp ult i32 %30, 16777216
  br i1 %31, label %32, label %_ZN5o3dgc16Arithmetic_Codec19renorm_enc_intervalEv.exit

32:                                               ; preds = %29
  %33 = getelementptr inbounds nuw i8, ptr %0, i64 24
  %34 = getelementptr inbounds nuw i8, ptr %0, i64 16
  %.pre.i = load i32, ptr %33, align 8
  br label %35

35:                                               ; preds = %35, %32
  %36 = phi i32 [ %42, %35 ], [ %.pre.i, %32 ]
  %37 = lshr i32 %36, 24
  %38 = trunc nuw i32 %37 to i8
  %39 = load ptr, ptr %34, align 8
  %40 = getelementptr inbounds nuw i8, ptr %39, i64 1
  store ptr %40, ptr %34, align 8
  store i8 %38, ptr %39, align 1
  %41 = load i32, ptr %33, align 8
  %42 = shl i32 %41, 8
  store i32 %42, ptr %33, align 8
  %43 = load i32, ptr %6, align 8
  %44 = shl i32 %43, 8
  store i32 %44, ptr %6, align 8
  %45 = icmp ult i32 %44, 16777216
  br i1 %45, label %35, label %_ZN5o3dgc16Arithmetic_Codec19renorm_enc_intervalEv.exit, !llvm.loop !5

_ZN5o3dgc16Arithmetic_Codec19renorm_enc_intervalEv.exit: ; preds = %35, %29
  %46 = getelementptr inbounds nuw i8, ptr %2, i64 4
  %47 = load i32, ptr %46, align 4
  %48 = add i32 %47, -1
  store i32 %48, ptr %46, align 4
  %49 = icmp eq i32 %48, 0
  br i1 %49, label %50, label %73

50:                                               ; preds = %_ZN5o3dgc16Arithmetic_Codec19renorm_enc_intervalEv.exit
  %51 = load i32, ptr %2, align 4
  %52 = getelementptr inbounds nuw i8, ptr %2, i64 16
  %53 = load i32, ptr %52, align 4
  %54 = add i32 %53, %51
  store i32 %54, ptr %52, align 4
  %55 = icmp ugt i32 %54, 8192
  br i1 %55, label %56, label %._crit_edge.i

._crit_edge.i:                                    ; preds = %50
  %.phi.trans.insert.i = getelementptr inbounds nuw i8, ptr %2, i64 12
  %.pre.i9 = load i32, ptr %.phi.trans.insert.i, align 4
  br label %_ZN5o3dgc18Adaptive_Bit_Model6updateEv.exit

56:                                               ; preds = %50
  %57 = add i32 %54, 1
  %58 = lshr i32 %57, 1
  store i32 %58, ptr %52, align 4
  %59 = getelementptr inbounds nuw i8, ptr %2, i64 12
  %60 = load i32, ptr %59, align 4
  %61 = add i32 %60, 1
  %62 = lshr i32 %61, 1
  store i32 %62, ptr %59, align 4
  %63 = icmp eq i32 %62, %58
  br i1 %63, label %64, label %_ZN5o3dgc18Adaptive_Bit_Model6updateEv.exit

64:                                               ; preds = %56
  %65 = add nuw i32 %58, 1
  store i32 %65, ptr %52, align 4
  br label %_ZN5o3dgc18Adaptive_Bit_Model6updateEv.exit

_ZN5o3dgc18Adaptive_Bit_Model6updateEv.exit:      ; preds = %._crit_edge.i, %56, %64
  %66 = phi i32 [ %62, %56 ], [ %58, %64 ], [ %.pre.i9, %._crit_edge.i ]
  %67 = phi i32 [ %58, %56 ], [ %65, %64 ], [ %54, %._crit_edge.i ]
  %68 = udiv i32 -2147483648, %67
  %69 = mul i32 %68, %66
  %70 = lshr i32 %69, 18
  store i32 %70, ptr %4, align 4
  %71 = mul i32 %51, 5
  %72 = tail call i32 @llvm.umin.i32(i32 %71, i32 259)
  %spec.select.i = lshr i32 %72, 2
  store i32 %spec.select.i, ptr %2, align 4
  store i32 %spec.select.i, ptr %46, align 4
  br label %73

73:                                               ; preds = %_ZN5o3dgc18Adaptive_Bit_Model6updateEv.exit, %_ZN5o3dgc16Arithmetic_Codec19renorm_enc_intervalEv.exit
  ret void
}